; Function Attrs: mustprogress uwtable
define hidden void @_ZNK5arith6solver10get_ivalueEi(ptr noalias sret(%"struct.lp::numeric_pair") align 8 %agg.result, ptr noundef nonnull align 8 dereferenceable(1144) %this, i32 noundef %v) local_unnamed_addr #3 align 2 {
entry:
  %ref.tmp = alloca %"class.lp::tv", align 4
  %m_solver = getelementptr inbounds i8, ptr %this, i64 592
  %0 = load ptr, ptr %m_solver, align 8
  %call2 = tail call i32 @_ZNK5arith6solver6get_tvEi(ptr noundef nonnull align 8 dereferenceable(1144) %this, i32 noundef %v)
  store i32 %call2, ptr %ref.tmp, align 4
  %call3 = call noundef nonnull align 8 dereferenceable(64) ptr @_ZNK2lp10lar_solver13get_tv_ivalueERKNS_2tvE(ptr noundef nonnull align 8 dereferenceable(1888) %0, ptr noundef nonnull align 4 dereferenceable(4) %ref.tmp)
  call void @_ZN2lp12numeric_pairI8rationalEC2ERKS2_(ptr noundef nonnull align 8 dereferenceable(64) %agg.result, ptr noundef nonnull align 8 dereferenceable(64) %call3)
  ret void
}